target datalayout = "e-m:e-p270:32:32-p271:32:32-p272:64:64-i64:64-i128:128-f80:128-n8:16:32:64-S128"
target triple = "x86_64-pc-linux-gnu"

%"struct.nanobind::dlpack::dtype" = type { i8, i8, i16 }
%"struct.nanobind::detail::managed_dltensor" = type { %"struct.nanobind::dlpack::dltensor", ptr, ptr }
%"struct.nanobind::dlpack::dltensor" = type { ptr, %"struct.nanobind::dlpack::device", i32, %"struct.nanobind::dlpack::dtype", ptr, ptr, i64 }
%"struct.nanobind::dlpack::device" = type { i32, i32 }
%class.anon.6 = type { i8 }
%"struct.nanobind::error_scope" = type { ptr, ptr, ptr }

@.str.13 = private unnamed_addr constant [9 x i8] c"dltensor\00", align 1

; Function Attrs: mustprogress uwtable
define linkonce_odr hidden void @_ZN8nanobind11error_scopeC2Ev(ptr noundef nonnull align 8 dereferenceable(24) %0) unnamed_addr #12 comdat align 2 {
  %2 = alloca ptr, align 8
  store ptr %0, ptr %2, align 8
  %3 = load ptr, ptr %2, align 8
  %4 = getelementptr inbounds nuw %"struct.nanobind::error_scope", ptr %3, i32 0, i32 0
  %5 = getelementptr inbounds nuw %"struct.nanobind::error_scope", ptr %3, i32 0, i32 1
  %6 = getelementptr inbounds nuw %"struct.nanobind::error_scope", ptr %3, i32 0, i32 2
  call void @PyErr_Fetch(ptr noundef %4, ptr noundef %5, ptr noundef %6)
  ret void
}

; Function Attrs: inlinehint mustprogress uwtable
define internal void @"_ZZN8nanobind6detailL27dlpack_from_buffer_protocolEP7_objectbENK3$_1clES2_"(ptr noundef nonnull align 1 dereferenceable(1) %0, ptr noundef %1) #8 align 2 personality ptr @__gxx_personality_v0 {
  %3 = alloca ptr, align 8
  %4 = alloca ptr, align 8
  %5 = alloca %"struct.nanobind::error_scope", align 8
  %6 = alloca ptr, align 8
  %7 = alloca ptr, align 8
  %8 = alloca i32, align 4
  store ptr %0, ptr %3, align 8
  store ptr %1, ptr %4, align 8
  call void @llvm.lifetime.start.p0(i64 24, ptr %5) #17
  call void @_ZN8nanobind11error_scopeC2Ev(ptr noundef nonnull align 8 dereferenceable(24) %5)
  call void @llvm.lifetime.start.p0(i64 8, ptr %6) #17
  %9 = load ptr, ptr %4, align 8
  %10 = invoke ptr @PyCapsule_GetPointer(ptr noundef %9, ptr noundef @.str.13)
          to label %11 unwind label %25

11:                                               ; preds = %2
  store ptr %10, ptr %6, align 8
  %12 = load ptr, ptr %6, align 8
  %13 = icmp ne ptr %12, null
  br i1 %13, label %14, label %30

14:                                               ; preds = %11
  %15 = load ptr, ptr %6, align 8
  %16 = getelementptr inbounds nuw %"struct.nanobind::detail::managed_dltensor", ptr %15, i32 0, i32 2
  %17 = load ptr, ptr %16, align 8
  %18 = icmp ne ptr %17, null
  br i1 %18, label %19, label %29

19:                                               ; preds = %14
  %20 = load ptr, ptr %6, align 8
  %21 = getelementptr inbounds nuw %"struct.nanobind::detail::managed_dltensor", ptr %20, i32 0, i32 2
  %22 = load ptr, ptr %21, align 8
  %23 = load ptr, ptr %6, align 8
  invoke void %22(ptr noundef %23)
          to label %24 unwind label %25

24:                                               ; preds = %19
  br label %29

25:                                               ; preds = %30, %19, %2
  %26 = landingpad { ptr, i32 }
          cleanup
  %27 = extractvalue { ptr, i32 } %26, 0
  store ptr %27, ptr %7, align 8
  %28 = extractvalue { ptr, i32 } %26, 1
  store i32 %28, ptr %8, align 4
  call void @llvm.lifetime.end.p0(i64 8, ptr %6) #17
  call void @_ZN8nanobind11error_scopeD2Ev(ptr noundef nonnull align 8 dereferenceable(24) %5) #17
  call void @llvm.lifetime.end.p0(i64 24, ptr %5) #17
  br label %33

29:                                               ; preds = %24, %14
  br label %32

30:                                               ; preds = %11
  invoke void @PyErr_Clear()
          to label %31 unwind label %25

31:                                               ; preds = %30
  br label %32

32:                                               ; preds = %31, %29
  call void @llvm.lifetime.end.p0(i64 8, ptr %6) #17
  call void @_ZN8nanobind11error_scopeD2Ev(ptr noundef nonnull align 8 dereferenceable(24) %5) #17
  call void @llvm.lifetime.end.p0(i64 24, ptr %5) #17
  ret void

33:                                               ; preds = %25
  %34 = load ptr, ptr %7, align 8
  %35 = load i32, ptr %8, align 4
  %36 = insertvalue { ptr, i32 } poison, ptr %34, 0
  %37 = insertvalue { ptr, i32 } %36, i32 %35, 1
  resume { ptr, i32 } %37
}

; Function Attrs: inlinehint mustprogress uwtable
define internal void @"_ZZN8nanobind6detailL27dlpack_from_buffer_protocolEP7_objectbEN3$_18__invokeES2_"(ptr noundef %0) #8 align 2 {
  %2 = alloca ptr, align 8
  %3 = alloca %class.anon.6, align 1
  store ptr %0, ptr %2, align 8
  %4 = load ptr, ptr %2, align 8
  call void @"_ZZN8nanobind6detailL27dlpack_from_buffer_protocolEP7_objectbENK3$_1clES2_"(ptr noundef nonnull align 1 dereferenceable(1) %3, ptr noundef %4)
  ret void
}