; Function Attrs: inlinehint mustprogress uwtable
define internal void @"_ZZN8nanobind6detailL27dlpack_from_buffer_protocolEP7_objectbEN3$_18__invokeES2_"(ptr noundef %0) #15 align 2 personality ptr @__gxx_personality_v0 {
  %2 = alloca %"struct.nanobind::error_scope", align 8
  call void @llvm.lifetime.start.p0(i64 24, ptr nonnull %2) #19
  %3 = getelementptr inbounds nuw i8, ptr %2, i64 8
  %4 = getelementptr inbounds nuw i8, ptr %2, i64 16
  call void @PyErr_Fetch(ptr noundef nonnull align 8 dereferenceable(24) %2, ptr noundef nonnull %3, ptr noundef nonnull %4)
  %5 = invoke ptr @PyCapsule_GetPointer(ptr noundef %0, ptr noundef nonnull @.str.13)
          to label %6 unwind label %11

6:                                                ; preds = %1
  %.not.i = icmp eq ptr %5, null
  br i1 %.not.i, label %13, label %7

7:                                                ; preds = %6
  %8 = getelementptr inbounds nuw i8, ptr %5, i64 56
  %9 = load ptr, ptr %8, align 8
  %.not7.i = icmp eq ptr %9, null
  br i1 %.not7.i, label %14, label %10

10:                                               ; preds = %7
  invoke void %9(ptr noundef nonnull %5)
          to label %14 unwind label %11

11:                                               ; preds = %13, %10, %1
  %12 = landingpad { ptr, i32 }
          cleanup
  call void @_ZN8nanobind11error_scopeD2Ev(ptr noundef nonnull align 8 dereferenceable(24) %2) #19
  call void @llvm.lifetime.end.p0(i64 24, ptr nonnull %2) #19
  resume { ptr, i32 } %12

13:                                               ; preds = %6
  invoke void @PyErr_Clear()
          to label %14 unwind label %11

14:                                               ; preds = %13, %10, %7
  %15 = load ptr, ptr %2, align 8
  %16 = load ptr, ptr %3, align 8
  %17 = load ptr, ptr %4, align 8
  invoke void @PyErr_Restore(ptr noundef %15, ptr noundef %16, ptr noundef %17)
          to label %"_ZZN8nanobind6detailL27dlpack_from_buffer_protocolEP7_objectbENK3$_1clES2_.exit" unwind label %18

18:                                               ; preds = %14
  %19 = landingpad { ptr, i32 }
          catch ptr null
  %20 = extractvalue { ptr, i32 } %19, 0
  call void @__clang_call_terminate(ptr %20) #20
  unreachable

"_ZZN8nanobind6detailL27dlpack_from_buffer_protocolEP7_objectbENK3$_1clES2_.exit": ; preds = %14
  call void @llvm.lifetime.end.p0(i64 24, ptr nonnull %2) #19
  ret void
}